; Function Attrs: mustprogress nounwind uwtable
define void @_Z18coco_string_deleteRPc(ptr nocapture noundef nonnull align 8 dereferenceable(8) %0) local_unnamed_addr #0 {
  %2 = load ptr, ptr %0, align 8
  %3 = icmp eq ptr %2, null
  br i1 %3, label %5, label %4

4:                                                ; preds = %1
  tail call void @_ZdaPv(ptr noundef nonnull %2) #20
  br label %5

5:                                                ; preds = %4, %1
  store ptr null, ptr %0, align 8
  ret void
}